; ModuleID = '51/359.c'
source_filename = "51/359.c"
target datalayout = "e-m:e-p270:32:32-p271:32:32-p272:64:64-i64:64-f80:128-n8:16:32:64-S128"
target triple = "x86_64-pc-linux-gnu"

@.str = private unnamed_addr constant [4 x i8] c"%d\0A\00", align 1
@.str.1 = private unnamed_addr constant [3 x i8] c"NO\00", align 1
@.str.2 = private unnamed_addr constant [3 x i8] c"%c\00", align 1
@.str.3 = private unnamed_addr constant [2 x i8] c"\0A\00", align 1

; Function Attrs: noinline nounwind uwtable
define dso_local i32 @main() #0 {
  %1 = alloca i32, align 4
  %2 = alloca i32, align 4
  %3 = alloca i32, align 4
  %4 = alloca i32, align 4
  %5 = alloca i32, align 4
  %6 = alloca i32, align 4
  %7 = alloca i32, align 4
  %8 = alloca [505 x i32], align 16
  %9 = alloca i32, align 4
  %10 = alloca i32, align 4
  %11 = alloca [505 x i8], align 16
  %12 = alloca [505 x [505 x i8]], align 16
  store i32 0, i32* %1, align 4
  store i32 0, i32* %5, align 4
  store i32 0, i32* %6, align 4
  store i32 0, i32* %7, align 4
  %13 = bitcast [505 x i32]* %8 to i8*
  call void @llvm.memset.p0i8.i64(i8* align 16 %13, i8 0, i64 2020, i1 false)
  store i32 0, i32* %9, align 4
  store i32 2, i32* %10, align 4
  %14 = call i32 (i8*, ...) @__isoc99_scanf(i8* getelementptr inbounds ([4 x i8], [4 x i8]* @.str, i64 0, i64 0), i32* %2)
  %15 = getelementptr inbounds [505 x i8], [505 x i8]* %11, i64 0, i64 0
  %16 = call i32 (i8*, ...) bitcast (i32 (...)* @gets to i32 (i8*, ...)*)(i8* %15)
  %17 = getelementptr inbounds [505 x i8], [505 x i8]* %11, i64 0, i64 0
  %18 = call i64 @strlen(i8* %17) #4
  %19 = trunc i64 %18 to i32
  store i32 %19, i32* %4, align 4
  store i32 0, i32* %3, align 4
  br label %20

20:                                               ; preds = %57, %0
  %21 = load i32, i32* %3, align 4
  %22 = load i32, i32* %4, align 4
  %23 = icmp slt i32 %21, %22
  br i1 %23, label %24, label %60

24:                                               ; preds = %20
  %25 = load i32, i32* %3, align 4
  store i32 %25, i32* %5, align 4
  br label %26

26:                                               ; preds = %45, %24
  %27 = load i32, i32* %5, align 4
  %28 = load i32, i32* %2, align 4
  %29 = load i32, i32* %3, align 4
  %30 = add nsw i32 %28, %29
  %31 = icmp slt i32 %27, %30
  br i1 %31, label %32, label %48

32:                                               ; preds = %26
  %33 = load i32, i32* %5, align 4
  %34 = sext i32 %33 to i64
  %35 = getelementptr inbounds [505 x i8], [505 x i8]* %11, i64 0, i64 %34
  %36 = load i8, i8* %35, align 1
  %37 = load i32, i32* %6, align 4
  %38 = sext i32 %37 to i64
  %39 = getelementptr inbounds [505 x [505 x i8]], [505 x [505 x i8]]* %12, i64 0, i64 %38
  %40 = load i32, i32* %7, align 4
  %41 = sext i32 %40 to i64
  %42 = getelementptr inbounds [505 x i8], [505 x i8]* %39, i64 0, i64 %41
  store i8 %36, i8* %42, align 1
  %43 = load i32, i32* %7, align 4
  %44 = add nsw i32 %43, 1
  store i32 %44, i32* %7, align 4
  br label %45

45:                                               ; preds = %32
  %46 = load i32, i32* %5, align 4
  %47 = add nsw i32 %46, 1
  store i32 %47, i32* %5, align 4
  br label %26

48:                                               ; preds = %26
  %49 = load i32, i32* %6, align 4
  %50 = sext i32 %49 to i64
  %51 = getelementptr inbounds [505 x [505 x i8]], [505 x [505 x i8]]* %12, i64 0, i64 %50
  %52 = load i32, i32* %2, align 4
  %53 = sext i32 %52 to i64
  %54 = getelementptr inbounds [505 x i8], [505 x i8]* %51, i64 0, i64 %53
  store i8 0, i8* %54, align 1
  %55 = load i32, i32* %6, align 4
  %56 = add nsw i32 %55, 1
  store i32 %56, i32* %6, align 4
  store i32 0, i32* %7, align 4
  br label %57

57:                                               ; preds = %48
  %58 = load i32, i32* %3, align 4
  %59 = add nsw i32 %58, 1
  store i32 %59, i32* %3, align 4
  br label %20

60:                                               ; preds = %20
  store i32 0, i32* %3, align 4
  br label %61

61:                                               ; preds = %96, %60
  %62 = load i32, i32* %3, align 4
  %63 = load i32, i32* %6, align 4
  %64 = icmp slt i32 %62, %63
  br i1 %64, label %65, label %99

65:                                               ; preds = %61
  %66 = load i32, i32* %3, align 4
  store i32 %66, i32* %5, align 4
  br label %67

67:                                               ; preds = %92, %65
  %68 = load i32, i32* %5, align 4
  %69 = load i32, i32* %6, align 4
  %70 = icmp slt i32 %68, %69
  br i1 %70, label %71, label %95

71:                                               ; preds = %67
  %72 = load i32, i32* %3, align 4
  %73 = sext i32 %72 to i64
  %74 = getelementptr inbounds [505 x [505 x i8]], [505 x [505 x i8]]* %12, i64 0, i64 %73
  %75 = getelementptr inbounds [505 x i8], [505 x i8]* %74, i64 0, i64 0
  %76 = load i32, i32* %5, align 4
  %77 = sext i32 %76 to i64
  %78 = getelementptr inbounds [505 x [505 x i8]], [505 x [505 x i8]]* %12, i64 0, i64 %77
  %79 = getelementptr inbounds [505 x i8], [505 x i8]* %78, i64 0, i64 0
  %80 = call i32 @strcmp(i8* %75, i8* %79) #4
  %81 = icmp eq i32 %80, 0
  br i1 %81, label %82, label %91

82:                                               ; preds = %71
  %83 = load i32, i32* %3, align 4
  %84 = sext i32 %83 to i64
  %85 = getelementptr inbounds [505 x i32], [505 x i32]* %8, i64 0, i64 %84
  %86 = load i32, i32* %85, align 4
  %87 = add nsw i32 %86, 1
  %88 = load i32, i32* %3, align 4
  %89 = sext i32 %88 to i64
  %90 = getelementptr inbounds [505 x i32], [505 x i32]* %8, i64 0, i64 %89
  store i32 %87, i32* %90, align 4
  br label %91

91:                                               ; preds = %82, %71
  br label %92

92:                                               ; preds = %91
  %93 = load i32, i32* %5, align 4
  %94 = add nsw i32 %93, 1
  store i32 %94, i32* %5, align 4
  br label %67

95:                                               ; preds = %67
  br label %96

96:                                               ; preds = %95
  %97 = load i32, i32* %3, align 4
  %98 = add nsw i32 %97, 1
  store i32 %98, i32* %3, align 4
  br label %61

99:                                               ; preds = %61
  store i32 0, i32* %3, align 4
  br label %100

100:                                              ; preds = %114, %99
  %101 = load i32, i32* %3, align 4
  %102 = load i32, i32* %6, align 4
  %103 = icmp slt i32 %101, %102
  br i1 %103, label %104, label %117

104:                                              ; preds = %100
  %105 = load i32, i32* %3, align 4
  %106 = sext i32 %105 to i64
  %107 = getelementptr inbounds [505 x i32], [505 x i32]* %8, i64 0, i64 %106
  %108 = load i32, i32* %107, align 4
  %109 = icmp eq i32 %108, 1
  br i1 %109, label %110, label %113

110:                                              ; preds = %104
  %111 = load i32, i32* %9, align 4
  %112 = add nsw i32 %111, 1
  store i32 %112, i32* %9, align 4
  br label %113

113:                                              ; preds = %110, %104
  br label %114

114:                                              ; preds = %113
  %115 = load i32, i32* %3, align 4
  %116 = add nsw i32 %115, 1
  store i32 %116, i32* %3, align 4
  br label %100

117:                                              ; preds = %100
  %118 = load i32, i32* %9, align 4
  %119 = load i32, i32* %6, align 4
  %120 = icmp eq i32 %118, %119
  br i1 %120, label %121, label %123

121:                                              ; preds = %117
  %122 = call i32 (i8*, ...) @printf(i8* getelementptr inbounds ([3 x i8], [3 x i8]* @.str.1, i64 0, i64 0))
  br label %184

123:                                              ; preds = %117
  store i32 0, i32* %3, align 4
  br label %124

124:                                              ; preds = %142, %123
  %125 = load i32, i32* %3, align 4
  %126 = load i32, i32* %6, align 4
  %127 = icmp slt i32 %125, %126
  br i1 %127, label %128, label %145

128:                                              ; preds = %124
  %129 = load i32, i32* %10, align 4
  %130 = load i32, i32* %3, align 4
  %131 = sext i32 %130 to i64
  %132 = getelementptr inbounds [505 x i32], [505 x i32]* %8, i64 0, i64 %131
  %133 = load i32, i32* %132, align 4
  %134 = icmp sle i32 %129, %133
  br i1 %134, label %135, label %140

135:                                              ; preds = %128
  %136 = load i32, i32* %3, align 4
  %137 = sext i32 %136 to i64
  %138 = getelementptr inbounds [505 x i32], [505 x i32]* %8, i64 0, i64 %137
  %139 = load i32, i32* %138, align 4
  store i32 %139, i32* %10, align 4
  br label %141

140:                                              ; preds = %128
  br label %142

141:                                              ; preds = %135
  br label %142

142:                                              ; preds = %141, %140
  %143 = load i32, i32* %3, align 4
  %144 = add nsw i32 %143, 1
  store i32 %144, i32* %3, align 4
  br label %124

145:                                              ; preds = %124
  %146 = load i32, i32* %10, align 4
  %147 = call i32 (i8*, ...) @printf(i8* getelementptr inbounds ([4 x i8], [4 x i8]* @.str, i64 0, i64 0), i32 %146)
  store i32 0, i32* %3, align 4
  br label %148

148:                                              ; preds = %180, %145
  %149 = load i32, i32* %3, align 4
  %150 = load i32, i32* %6, align 4
  %151 = icmp slt i32 %149, %150
  br i1 %151, label %152, label %183

152:                                              ; preds = %148
  %153 = load i32, i32* %3, align 4
  %154 = sext i32 %153 to i64
  %155 = getelementptr inbounds [505 x i32], [505 x i32]* %8, i64 0, i64 %154
  %156 = load i32, i32* %155, align 4
  %157 = load i32, i32* %10, align 4
  %158 = icmp eq i32 %156, %157
  br i1 %158, label %159, label %179

159:                                              ; preds = %152
  store i32 0, i32* %5, align 4
  br label %160

160:                                              ; preds = %174, %159
  %161 = load i32, i32* %5, align 4
  %162 = load i32, i32* %2, align 4
  %163 = icmp slt i32 %161, %162
  br i1 %163, label %164, label %177

164:                                              ; preds = %160
  %165 = load i32, i32* %3, align 4
  %166 = sext i32 %165 to i64
  %167 = getelementptr inbounds [505 x [505 x i8]], [505 x [505 x i8]]* %12, i64 0, i64 %166
  %168 = load i32, i32* %5, align 4
  %169 = sext i32 %168 to i64
  %170 = getelementptr inbounds [505 x i8], [505 x i8]* %167, i64 0, i64 %169
  %171 = load i8, i8* %170, align 1
  %172 = sext i8 %171 to i32
  %173 = call i32 (i8*, ...) @printf(i8* getelementptr inbounds ([3 x i8], [3 x i8]* @.str.2, i64 0, i64 0), i32 %172)
  br label %174

174:                                              ; preds = %164
  %175 = load i32, i32* %5, align 4
  %176 = add nsw i32 %175, 1
  store i32 %176, i32* %5, align 4
  br label %160

177:                                              ; preds = %160
  %178 = call i32 (i8*, ...) @printf(i8* getelementptr inbounds ([2 x i8], [2 x i8]* @.str.3, i64 0, i64 0))
  br label %179

179:                                              ; preds = %177, %152
  br label %180

180:                                              ; preds = %179
  %181 = load i32, i32* %3, align 4
  %182 = add nsw i32 %181, 1
  store i32 %182, i32* %3, align 4
  br label %148

183:                                              ; preds = %148
  br label %184

184:                                              ; preds = %183, %121
  ret i32 0
}

; Function Attrs: argmemonly nounwind willreturn
declare void @llvm.memset.p0i8.i64(i8* nocapture writeonly, i8, i64, i1 immarg) #1

declare dso_local i32 @__isoc99_scanf(i8*, ...) #2

declare dso_local i32 @gets(...) #2

; Function Attrs: nounwind readonly
declare dso_local i64 @strlen(i8*) #3

; Function Attrs: nounwind readonly
declare dso_local i32 @strcmp(i8*, i8*) #3

declare dso_local i32 @printf(i8*, ...) #2


!llvm.module.flags = !{!0}
!llvm.ident = !{!1}

!0 = !{i32 1, !"wchar_size", i32 4}
!1 = !{!"clang version 10.0.0-4ubuntu1 "}
